target datalayout = "e-m:e-p270:32:32-p271:32:32-p272:64:64-i64:64-i128:128-f80:128-n8:16:32:64-S128"
target triple = "x86_64-pc-linux-gnu"

@verbose = internal global i32 0, align 4
@startpos = internal global i64 0, align 8
@replication_slot = internal global ptr null, align 8
@output_written_lsn = internal global i64 0, align 8
@output_fsync_lsn = internal global i64 0, align 8
@sendFeedback.last_written_lsn = internal global i64 0, align 8
@sendFeedback.last_fsync_lsn = internal global i64 0, align 8
@.str.108 = private unnamed_addr constant [55 x i8] c"confirming write up to %X/%X, flush to %X/%X (slot %s)\00", align 1
@.str.109 = private unnamed_addr constant [35 x i8] c"could not send feedback packet: %s\00", align 1

; Function Attrs: nounwind uwtable
define internal zeroext i1 @sendFeedback(ptr noundef %0, i64 noundef %1, i1 noundef zeroext %2, i1 noundef zeroext %3) #0 {
  %5 = alloca i1, align 1
  %6 = alloca ptr, align 8
  %7 = alloca i64, align 8
  %8 = alloca i8, align 1
  %9 = alloca i8, align 1
  %10 = alloca [34 x i8], align 16
  %11 = alloca i32, align 4
  %12 = alloca i32, align 4
  %13 = alloca i32, align 4
  %14 = alloca i32, align 4
  store ptr %0, ptr %6, align 8
  store i64 %1, ptr %7, align 8
  %15 = zext i1 %2 to i8
  store i8 %15, ptr %8, align 1
  %16 = zext i1 %3 to i8
  store i8 %16, ptr %9, align 1
  call void @llvm.lifetime.start.p0(i64 34, ptr %10) #7
  call void @llvm.lifetime.start.p0(i64 4, ptr %11) #7
  store i32 0, ptr %11, align 4
  %17 = load i8, ptr %8, align 1, !range !6, !noundef !7
  %18 = trunc i8 %17 to i1
  br i1 %18, label %28, label %19

19:                                               ; preds = %4
  %20 = load i64, ptr @sendFeedback.last_written_lsn, align 8
  %21 = load i64, ptr @output_written_lsn, align 8
  %22 = icmp eq i64 %20, %21
  br i1 %22, label %23, label %28

23:                                               ; preds = %19
  %24 = load i64, ptr @sendFeedback.last_fsync_lsn, align 8
  %25 = load i64, ptr @output_fsync_lsn, align 8
  %26 = icmp eq i64 %24, %25
  br i1 %26, label %27, label %28

27:                                               ; preds = %23
  store i1 true, ptr %5, align 1
  store i32 1, ptr %12, align 4
  br label %103

28:                                               ; preds = %23, %19, %4
  %29 = load i32, ptr @verbose, align 4
  %30 = icmp ne i32 %29, 0
  br i1 %30, label %31, label %49

31:                                               ; preds = %28
  br label %32

32:                                               ; preds = %31
  br label %33

33:                                               ; preds = %32
  br label %34

34:                                               ; preds = %33
  store i32 1, ptr %13, align 4
  %35 = load i64, ptr @output_written_lsn, align 8
  %36 = lshr i64 %35, 32
  %37 = trunc i64 %36 to i32
  %38 = load i64, ptr @output_written_lsn, align 8
  %39 = trunc i64 %38 to i32
  br label %40

40:                                               ; preds = %34
  br label %41

41:                                               ; preds = %40
  br label %42

42:                                               ; preds = %41
  store i32 1, ptr %14, align 4
  %43 = load i64, ptr @output_fsync_lsn, align 8
  %44 = lshr i64 %43, 32
  %45 = trunc i64 %44 to i32
  %46 = load i64, ptr @output_fsync_lsn, align 8
  %47 = trunc i64 %46 to i32
  %48 = load ptr, ptr @replication_slot, align 8
  call void (i32, i32, ptr, ...) @pg_log_generic(i32 noundef 2, i32 noundef 0, ptr noundef @.str.108, i32 noundef %37, i32 noundef %39, i32 noundef %45, i32 noundef %47, ptr noundef %48)
  br label %49

49:                                               ; preds = %42, %28
  %50 = load i32, ptr %11, align 4
  %51 = sext i32 %50 to i64
  %52 = getelementptr inbounds [34 x i8], ptr %10, i64 0, i64 %51
  store i8 114, ptr %52, align 1
  %53 = load i32, ptr %11, align 4
  %54 = add i32 %53, 1
  store i32 %54, ptr %11, align 4
  %55 = load i64, ptr @output_written_lsn, align 8
  %56 = load i32, ptr %11, align 4
  %57 = sext i32 %56 to i64
  %58 = getelementptr inbounds [34 x i8], ptr %10, i64 0, i64 %57
  call void @fe_sendint64(i64 noundef %55, ptr noundef %58)
  %59 = load i32, ptr %11, align 4
  %60 = add i32 %59, 8
  store i32 %60, ptr %11, align 4
  %61 = load i64, ptr @output_fsync_lsn, align 8
  %62 = load i32, ptr %11, align 4
  %63 = sext i32 %62 to i64
  %64 = getelementptr inbounds [34 x i8], ptr %10, i64 0, i64 %63
  call void @fe_sendint64(i64 noundef %61, ptr noundef %64)
  %65 = load i32, ptr %11, align 4
  %66 = add i32 %65, 8
  store i32 %66, ptr %11, align 4
  %67 = load i32, ptr %11, align 4
  %68 = sext i32 %67 to i64
  %69 = getelementptr inbounds [34 x i8], ptr %10, i64 0, i64 %68
  call void @fe_sendint64(i64 noundef 0, ptr noundef %69)
  %70 = load i32, ptr %11, align 4
  %71 = add i32 %70, 8
  store i32 %71, ptr %11, align 4
  %72 = load i64, ptr %7, align 8
  %73 = load i32, ptr %11, align 4
  %74 = sext i32 %73 to i64
  %75 = getelementptr inbounds [34 x i8], ptr %10, i64 0, i64 %74
  call void @fe_sendint64(i64 noundef %72, ptr noundef %75)
  %76 = load i32, ptr %11, align 4
  %77 = add i32 %76, 8
  store i32 %77, ptr %11, align 4
  %78 = load i8, ptr %9, align 1, !range !6, !noundef !7
  %79 = trunc i8 %78 to i1
  %80 = select i1 %79, i32 1, i32 0
  %81 = trunc i32 %80 to i8
  %82 = load i32, ptr %11, align 4
  %83 = sext i32 %82 to i64
  %84 = getelementptr inbounds [34 x i8], ptr %10, i64 0, i64 %83
  store i8 %81, ptr %84, align 1
  %85 = load i32, ptr %11, align 4
  %86 = add i32 %85, 1
  store i32 %86, ptr %11, align 4
  %87 = load i64, ptr @output_written_lsn, align 8
  store i64 %87, ptr @startpos, align 8
  %88 = load i64, ptr @output_written_lsn, align 8
  store i64 %88, ptr @sendFeedback.last_written_lsn, align 8
  %89 = load i64, ptr @output_fsync_lsn, align 8
  store i64 %89, ptr @sendFeedback.last_fsync_lsn, align 8
  %90 = load ptr, ptr %6, align 8
  %91 = getelementptr inbounds [34 x i8], ptr %10, i64 0, i64 0
  %92 = load i32, ptr %11, align 4
  %93 = call i32 @PQputCopyData(ptr noundef %90, ptr noundef %91, i32 noundef %92)
  %94 = icmp sle i32 %93, 0
  br i1 %94, label %99, label %95

95:                                               ; preds = %49
  %96 = load ptr, ptr %6, align 8
  %97 = call i32 @PQflush(ptr noundef %96)
  %98 = icmp ne i32 %97, 0
  br i1 %98, label %99, label %102

99:                                               ; preds = %95, %49
  %100 = load ptr, ptr %6, align 8
  %101 = call ptr @PQerrorMessage(ptr noundef %100)
  call void (i32, i32, ptr, ...) @pg_log_generic(i32 noundef 4, i32 noundef 0, ptr noundef @.str.109, ptr noundef %101)
  store i1 false, ptr %5, align 1
  store i32 1, ptr %12, align 4
  br label %103

102:                                              ; preds = %95
  store i1 true, ptr %5, align 1
  store i32 1, ptr %12, align 4
  br label %103

103:                                              ; preds = %102, %99, %27
  call void @llvm.lifetime.end.p0(i64 4, ptr %11) #7
  call void @llvm.lifetime.end.p0(i64 34, ptr %10) #7
  %104 = load i1, ptr %5, align 1
  ret i1 %104
}