; Function Attrs: nounwind uwtable
define internal fastcc noundef zeroext i1 @sendFeedback(ptr noundef %0, i64 noundef %1) unnamed_addr #4 {
  %3 = alloca [34 x i8], align 16
  call void @llvm.lifetime.start.p0(i64 34, ptr nonnull %3) #13
  %4 = load i32, ptr @verbose, align 4
  %.not = icmp eq i32 %4, 0
  br i1 %.not, label %15, label %5

5:                                                ; preds = %2
  %6 = load i64, ptr @output_written_lsn, align 8
  %7 = lshr i64 %6, 32
  %8 = trunc nuw i64 %7 to i32
  %9 = trunc i64 %6 to i32
  %10 = load i64, ptr @output_fsync_lsn, align 8
  %11 = lshr i64 %10, 32
  %12 = trunc nuw i64 %11 to i32
  %13 = trunc i64 %10 to i32
  %14 = load ptr, ptr @replication_slot, align 8
  tail call void (i32, i32, ptr, ...) @pg_log_generic(i32 noundef 2, i32 noundef 0, ptr noundef nonnull @.str.108, i32 noundef %8, i32 noundef %9, i32 noundef %12, i32 noundef %13, ptr noundef %14) #13
  br label %15

15:                                               ; preds = %5, %2
  store i8 114, ptr %3, align 16
  %16 = load i64, ptr @output_written_lsn, align 8
  %17 = getelementptr inbounds nuw i8, ptr %3, i64 1
  call void @fe_sendint64(i64 noundef %16, ptr noundef nonnull %17) #13
  %18 = load i64, ptr @output_fsync_lsn, align 8
  %19 = getelementptr inbounds nuw i8, ptr %3, i64 9
  call void @fe_sendint64(i64 noundef %18, ptr noundef nonnull %19) #13
  %20 = getelementptr inbounds nuw i8, ptr %3, i64 17
  call void @fe_sendint64(i64 noundef 0, ptr noundef nonnull %20) #13
  %21 = getelementptr inbounds nuw i8, ptr %3, i64 25
  call void @fe_sendint64(i64 noundef %1, ptr noundef nonnull %21) #13
  %22 = getelementptr inbounds nuw i8, ptr %3, i64 33
  store i8 0, ptr %22, align 1
  %23 = load i64, ptr @output_written_lsn, align 8
  store i64 %23, ptr @startpos, align 8
  %24 = call i32 @PQputCopyData(ptr noundef %0, ptr noundef nonnull %3, i32 noundef 34) #13
  %25 = icmp slt i32 %24, 1
  br i1 %25, label %28, label %26

26:                                               ; preds = %15
  %27 = call i32 @PQflush(ptr noundef %0) #13
  %.not19 = icmp eq i32 %27, 0
  br i1 %.not19, label %30, label %28

28:                                               ; preds = %26, %15
  %29 = call ptr @PQerrorMessage(ptr noundef %0) #13
  call void (i32, i32, ptr, ...) @pg_log_generic(i32 noundef 4, i32 noundef 0, ptr noundef nonnull @.str.109, ptr noundef %29) #13
  br label %30

30:                                               ; preds = %26, %28
  %.0 = phi i1 [ false, %28 ], [ true, %26 ]
  call void @llvm.lifetime.end.p0(i64 34, ptr nonnull %3) #13
  ret i1 %.0
}